target datalayout = "e-m:e-p270:32:32-p271:32:32-p272:64:64-i64:64-i128:128-f80:128-n8:16:32:64-S128"
target triple = "x86_64-unknown-linux-gnu"

%"class.std::set.0" = type { %"class.std::_Rb_tree.1" }
%"class.std::_Rb_tree.1" = type { %"struct.std::_Rb_tree<QuantLib::Observer *, QuantLib::Observer *, std::_Identity<QuantLib::Observer *>, std::less<QuantLib::Observer *>>::_Rb_tree_impl" }
%"struct.std::_Rb_tree<QuantLib::Observer *, QuantLib::Observer *, std::_Identity<QuantLib::Observer *>, std::less<QuantLib::Observer *>>::_Rb_tree_impl" = type { [8 x i8], %"struct.std::_Rb_tree_header" }
%"struct.std::_Rb_tree_header" = type { %"struct.std::_Rb_tree_node_base", i64 }
%"struct.std::_Rb_tree_node_base" = type { i32, ptr, ptr, ptr }
%"class.QuantLib::Date" = type { i64 }
%"class.boost::detail::shared_count" = type { ptr }
%"class.std::set" = type { %"class.std::_Rb_tree" }
%"class.std::_Rb_tree" = type { %"struct.std::_Rb_tree<boost::shared_ptr<QuantLib::Observable>, boost::shared_ptr<QuantLib::Observable>, std::_Identity<boost::shared_ptr<QuantLib::Observable>>, std::less<boost::shared_ptr<QuantLib::Observable>>>::_Rb_tree_impl" }
%"struct.std::_Rb_tree<boost::shared_ptr<QuantLib::Observable>, boost::shared_ptr<QuantLib::Observable>, std::_Identity<boost::shared_ptr<QuantLib::Observable>>, std::less<boost::shared_ptr<QuantLib::Observable>>>::_Rb_tree_impl" = type { [8 x i8], %"struct.std::_Rb_tree_header" }
%"class.QuantLib::Observable" = type { ptr, %"class.std::set.0" }
%"class.QuantLib::Observer" = type { ptr, %"class.std::set" }
%"class.QuantLib::Basket" = type { %"class.QuantLib::LazyObject.base", %"class.std::vector.16", %"class.boost::shared_ptr.25", %"class.boost::shared_ptr.26", double, double, double, double, double, double, double, double, double, double, %"class.std::vector.27", %"class.std::vector.16", %"class.std::vector.32", %"class.std::vector.37", %"class.QuantLib::Date", %"class.boost::shared_ptr.42", %"class.QuantLib::Observable", %"class.QuantLib::Observer" }
%"class.QuantLib::LazyObject.base" = type <{ ptr, i8, i8, i8, i8 }>
%"class.boost::shared_ptr.25" = type { ptr, %"class.boost::detail::shared_count" }
%"class.boost::shared_ptr.26" = type { ptr, %"class.boost::detail::shared_count" }
%"class.std::vector.27" = type { %"struct.std::_Vector_base.28" }
%"struct.std::_Vector_base.28" = type { %"struct.std::_Vector_base<unsigned long, std::allocator<unsigned long>>::_Vector_impl" }
%"struct.std::_Vector_base<unsigned long, std::allocator<unsigned long>>::_Vector_impl" = type { %"struct.std::_Vector_base<unsigned long, std::allocator<unsigned long>>::_Vector_impl_data" }
%"struct.std::_Vector_base<unsigned long, std::allocator<unsigned long>>::_Vector_impl_data" = type { ptr, ptr, ptr }
%"class.std::vector.16" = type { %"struct.std::_Vector_base.17" }
%"struct.std::_Vector_base.17" = type { %"struct.std::_Vector_base<double, std::allocator<double>>::_Vector_impl" }
%"struct.std::_Vector_base<double, std::allocator<double>>::_Vector_impl" = type { %"struct.std::_Vector_base<double, std::allocator<double>>::_Vector_impl_data" }
%"struct.std::_Vector_base<double, std::allocator<double>>::_Vector_impl_data" = type { ptr, ptr, ptr }
%"class.std::vector.32" = type { %"struct.std::_Vector_base.33" }
%"struct.std::_Vector_base.33" = type { %"struct.std::_Vector_base<std::__cxx11::basic_string<char>, std::allocator<std::__cxx11::basic_string<char>>>::_Vector_impl" }
%"struct.std::_Vector_base<std::__cxx11::basic_string<char>, std::allocator<std::__cxx11::basic_string<char>>>::_Vector_impl" = type { %"struct.std::_Vector_base<std::__cxx11::basic_string<char>, std::allocator<std::__cxx11::basic_string<char>>>::_Vector_impl_data" }
%"struct.std::_Vector_base<std::__cxx11::basic_string<char>, std::allocator<std::__cxx11::basic_string<char>>>::_Vector_impl_data" = type { ptr, ptr, ptr }
%"class.std::vector.37" = type { %"struct.std::_Vector_base.38" }
%"struct.std::_Vector_base.38" = type { %"struct.std::_Vector_base<QuantLib::DefaultProbKey, std::allocator<QuantLib::DefaultProbKey>>::_Vector_impl" }
%"struct.std::_Vector_base<QuantLib::DefaultProbKey, std::allocator<QuantLib::DefaultProbKey>>::_Vector_impl" = type { %"struct.std::_Vector_base<QuantLib::DefaultProbKey, std::allocator<QuantLib::DefaultProbKey>>::_Vector_impl_data" }
%"struct.std::_Vector_base<QuantLib::DefaultProbKey, std::allocator<QuantLib::DefaultProbKey>>::_Vector_impl_data" = type { ptr, ptr, ptr }
%"class.boost::shared_ptr.42" = type { ptr, %"class.boost::detail::shared_count" }

@.str.11 = private unnamed_addr constant [8 x i8] c"px != 0\00", align 1
@.str.12 = private unnamed_addr constant [102 x i8] c"generated/home/dtcxzyw/WorkSpace/SDK/vcpkg/installed/x64-linux/include/boost/smart_ptr/shared_ptr.hpp\00", align 1
@__PRETTY_FUNCTION__._ZNK5boost10shared_ptrIN8QuantLib16DefaultLossModelEEptEv = private unnamed_addr constant [149 x i8] c"typename boost::detail::sp_member_access<T>::type boost::shared_ptr<QuantLib::DefaultLossModel>::operator->() const [T = QuantLib::DefaultLossModel]\00", align 1

; Function Attrs: mustprogress uwtable
define linkonce_odr noundef ptr @_ZNK5boost10shared_ptrIN8QuantLib16DefaultLossModelEEptEv(ptr noundef nonnull align 8 dereferenceable(16) %this) #2 comdat align 2 {
entry:
  %this.addr = alloca ptr, align 8
  store ptr %this, ptr %this.addr, align 8, !tbaa !3
  %this1 = load ptr, ptr %this.addr, align 8
  %px = getelementptr inbounds nuw %"class.boost::shared_ptr.42", ptr %this1, i32 0, i32 0
  %0 = load ptr, ptr %px, align 8, !tbaa !58
  %cmp = icmp ne ptr %0, null
  %lnot = xor i1 %cmp, true
  %lnot2 = xor i1 %lnot, true
  %conv = zext i1 %lnot2 to i64
  %expval = call i64 @llvm.expect.i64(i64 %conv, i64 1)
  %tobool = icmp ne i64 %expval, 0
  br i1 %tobool, label %cond.true, label %cond.false

cond.true:                                        ; preds = %entry
  br label %cond.end

cond.false:                                       ; preds = %entry
  call void @_ZN5boost16assertion_failedEPKcS1_S1_l(ptr noundef @.str.11, ptr noundef @__PRETTY_FUNCTION__._ZNK5boost10shared_ptrIN8QuantLib16DefaultLossModelEEptEv, ptr noundef @.str.12, i64 noundef 784)
  br label %cond.end

cond.end:                                         ; preds = %cond.false, %cond.true
  %px3 = getelementptr inbounds nuw %"class.boost::shared_ptr.42", ptr %this1, i32 0, i32 0
  %1 = load ptr, ptr %px3, align 8, !tbaa !58
  ret ptr %1
}

; Function Attrs: mustprogress uwtable
define noundef double @_ZNK8QuantLib6Basket12probOverLossERKNS_4DateEd(ptr noundef nonnull align 8 dereferenceable(272) %this, ptr noundef nonnull align 8 dereferenceable(8) %d, double noundef %lossFraction) #2 align 2 {
entry:
  %retval = alloca double, align 8
  %this.addr = alloca ptr, align 8
  %d.addr = alloca ptr, align 8
  %lossFraction.addr = alloca double, align 8
  %xPtfl = alloca double, align 8
  %xPrim = alloca double, align 8
  %cleanup.dest.slot = alloca i32, align 4
  store ptr %this, ptr %this.addr, align 8, !tbaa !3
  store ptr %d, ptr %d.addr, align 8, !tbaa !3
  store double %lossFraction, ptr %lossFraction.addr, align 8, !tbaa !24
  %this1 = load ptr, ptr %this.addr, align 8
  %vtable = load ptr, ptr %this1, align 8, !tbaa !20
  %vfn = getelementptr inbounds ptr, ptr %vtable, i64 3
  %0 = load ptr, ptr %vfn, align 8
  call void %0(ptr noundef nonnull align 8 dereferenceable(12) %this1)
  %evalDateRemainingNot_ = getelementptr inbounds nuw %"class.QuantLib::Basket", ptr %this1, i32 0, i32 11
  %1 = load double, ptr %evalDateRemainingNot_, align 8, !tbaa !64
  %cmp = fcmp oeq double %1, 0.000000e+00
  br i1 %cmp, label %if.then, label %if.end

if.then:                                          ; preds = %entry
  store double 1.000000e+00, ptr %retval, align 8
  br label %return

if.end:                                           ; preds = %entry
  call void @llvm.lifetime.start.p0(i64 8, ptr %xPtfl) #14
  %attachmentAmount_ = getelementptr inbounds nuw %"class.QuantLib::Basket", ptr %this1, i32 0, i32 7
  %2 = load double, ptr %attachmentAmount_, align 8, !tbaa !51
  %detachmentAmount_ = getelementptr inbounds nuw %"class.QuantLib::Basket", ptr %this1, i32 0, i32 8
  %3 = load double, ptr %detachmentAmount_, align 8, !tbaa !52
  %attachmentAmount_2 = getelementptr inbounds nuw %"class.QuantLib::Basket", ptr %this1, i32 0, i32 7
  %4 = load double, ptr %attachmentAmount_2, align 8, !tbaa !51
  %sub = fsub double %3, %4
  %5 = load double, ptr %lossFraction.addr, align 8, !tbaa !24
  %6 = call double @llvm.fmuladd.f64(double %sub, double %5, double %2)
  store double %6, ptr %xPtfl, align 8, !tbaa !24
  call void @llvm.lifetime.start.p0(i64 8, ptr %xPrim) #14
  %7 = load double, ptr %xPtfl, align 8, !tbaa !24
  %evalDateAttachAmount_ = getelementptr inbounds nuw %"class.QuantLib::Basket", ptr %this1, i32 0, i32 12
  %8 = load double, ptr %evalDateAttachAmount_, align 8, !tbaa !65
  %sub3 = fsub double %7, %8
  %detachmentAmount_4 = getelementptr inbounds nuw %"class.QuantLib::Basket", ptr %this1, i32 0, i32 8
  %9 = load double, ptr %detachmentAmount_4, align 8, !tbaa !52
  %evalDateAttachAmount_5 = getelementptr inbounds nuw %"class.QuantLib::Basket", ptr %this1, i32 0, i32 12
  %10 = load double, ptr %evalDateAttachAmount_5, align 8, !tbaa !65
  %sub6 = fsub double %9, %10
  %div = fdiv double %sub3, %sub6
  store double %div, ptr %xPrim, align 8, !tbaa !24
  %11 = load double, ptr %xPtfl, align 8, !tbaa !24
  %cmp7 = fcmp olt double %11, 0.000000e+00
  br i1 %cmp7, label %if.then8, label %if.end9

if.then8:                                         ; preds = %if.end
  store double 1.000000e+00, ptr %retval, align 8
  store i32 1, ptr %cleanup.dest.slot, align 4
  br label %cleanup

if.end9:                                          ; preds = %if.end
  %lossModel_ = getelementptr inbounds nuw %"class.QuantLib::Basket", ptr %this1, i32 0, i32 19
  %call = call noundef ptr @_ZNK5boost10shared_ptrIN8QuantLib16DefaultLossModelEEptEv(ptr noundef nonnull align 8 dereferenceable(16) %lossModel_)
  %12 = load ptr, ptr %d.addr, align 8, !tbaa !3
  %13 = load double, ptr %xPrim, align 8, !tbaa !24
  %vtable10 = load ptr, ptr %call, align 8, !tbaa !20
  %vfn11 = getelementptr inbounds ptr, ptr %vtable10, i64 3
  %14 = load ptr, ptr %vfn11, align 8
  %call12 = call noundef double %14(ptr noundef nonnull align 8 dereferenceable(72) %call, ptr noundef nonnull align 8 dereferenceable(8) %12, double noundef %13)
  store double %call12, ptr %retval, align 8
  store i32 1, ptr %cleanup.dest.slot, align 4
  br label %cleanup

cleanup:                                          ; preds = %if.end9, %if.then8
  call void @llvm.lifetime.end.p0(i64 8, ptr %xPrim) #14
  call void @llvm.lifetime.end.p0(i64 8, ptr %xPtfl) #14
  br label %return

return:                                           ; preds = %cleanup, %if.then
  %15 = load double, ptr %retval, align 8
  ret double %15
}