; Function Attrs: mustprogress uwtable
define noundef double @_ZNK8QuantLib6Basket12probOverLossERKNS_4DateEd(ptr noundef nonnull align 8 dereferenceable(272) %this, ptr noundef nonnull align 8 dereferenceable(8) %d, double noundef %lossFraction) local_unnamed_addr #8 align 2 {
entry:
  %vtable = load ptr, ptr %this, align 8, !tbaa !33
  %vfn = getelementptr inbounds i8, ptr %vtable, i64 24
  %0 = load ptr, ptr %vfn, align 8
  tail call void %0(ptr noundef nonnull align 8 dereferenceable(12) %this)
  %evalDateRemainingNot_ = getelementptr inbounds nuw i8, ptr %this, i64 128
  %1 = load double, ptr %evalDateRemainingNot_, align 8, !tbaa !95
  %cmp = fcmp oeq double %1, 0.000000e+00
  br i1 %cmp, label %return, label %if.end

if.end:                                           ; preds = %entry
  %attachmentAmount_ = getelementptr inbounds nuw i8, ptr %this, i64 96
  %2 = load double, ptr %attachmentAmount_, align 8, !tbaa !84
  %detachmentAmount_ = getelementptr inbounds nuw i8, ptr %this, i64 104
  %3 = load double, ptr %detachmentAmount_, align 8, !tbaa !83
  %sub = fsub double %3, %2
  %4 = tail call double @llvm.fmuladd.f64(double %sub, double %lossFraction, double %2)
  %cmp7 = fcmp olt double %4, 0.000000e+00
  br i1 %cmp7, label %return, label %if.end9

if.end9:                                          ; preds = %if.end
  %evalDateAttachAmount_ = getelementptr inbounds nuw i8, ptr %this, i64 136
  %5 = load double, ptr %evalDateAttachAmount_, align 8, !tbaa !100
  %sub3 = fsub double %4, %5
  %sub6 = fsub double %3, %5
  %div = fdiv double %sub3, %sub6
  %lossModel_ = getelementptr inbounds nuw i8, ptr %this, i64 256
  %6 = load ptr, ptr %lossModel_, align 8, !tbaa !106
  %cmp.not.i = icmp eq ptr %6, null
  br i1 %cmp.not.i, label %cond.false.i, label %_ZNK5boost10shared_ptrIN8QuantLib16DefaultLossModelEEptEv.exit, !prof !123

cond.false.i:                                     ; preds = %if.end9
  tail call void @_ZN5boost16assertion_failedEPKcS1_S1_l(ptr noundef nonnull @.str.11, ptr noundef nonnull @__PRETTY_FUNCTION__._ZNK5boost10shared_ptrIN8QuantLib16DefaultLossModelEEptEv, ptr noundef nonnull @.str.12, i64 noundef 784)
  %.pre.i = load ptr, ptr %lossModel_, align 8, !tbaa !106
  br label %_ZNK5boost10shared_ptrIN8QuantLib16DefaultLossModelEEptEv.exit

_ZNK5boost10shared_ptrIN8QuantLib16DefaultLossModelEEptEv.exit: ; preds = %if.end9, %cond.false.i
  %7 = phi ptr [ %6, %if.end9 ], [ %.pre.i, %cond.false.i ]
  %vtable10 = load ptr, ptr %7, align 8, !tbaa !33
  %vfn11 = getelementptr inbounds i8, ptr %vtable10, i64 24
  %8 = load ptr, ptr %vfn11, align 8
  %call12 = tail call noundef double %8(ptr noundef nonnull align 8 dereferenceable(72) %7, ptr noundef nonnull align 8 dereferenceable(8) %d, double noundef %div)
  br label %return

return:                                           ; preds = %_ZNK5boost10shared_ptrIN8QuantLib16DefaultLossModelEEptEv.exit, %if.end, %entry
  %retval.0 = phi double [ 1.000000e+00, %entry ], [ %call12, %_ZNK5boost10shared_ptrIN8QuantLib16DefaultLossModelEEptEv.exit ], [ 1.000000e+00, %if.end ]
  ret double %retval.0
}